(dp0
S'down'
p1
(lp2
(lp3
F-0.3750602104101073
aF-0.0001665102946174586
aa(lp4
F-0.005179833315732255
aF-2.694337298254479e-06
aa(lp5
I0
aF-1.1901165956125242e-08
aasS'nom'
p6
(lp7
(lp8
F-0.03309802536643336
aF8.07947253139843e-06
aa(lp9
F0.0002760059120786965
aF-5.621838794993773e-08
aa(lp10
F4.245032518725995e-06
aF-7.284772713640307e-10
aasS'up'
p11
(lp12
(lp13
F0.30886415967724057
aF0.00018266923968025546
aa(lp14
F0.005731845139889648
aF2.5819005223546038e-06
aa(lp15
F2.6672467445552367e-05
aF1.044421141339718e-08
aas.